Certificate:
    Data:
        Version: 3 (0x2)
        Serial Number: 1 (0x1)
        Signature Algorithm: sha256WithRSAEncryption
        Issuer: C=US, O=Google, OU=Enterprise, CN=Enterprise Root CA-1
        Validity
            Not Before: Jan  6 23:51:10 2023 GMT
            Not After : Jan  5 23:51:10 2033 GMT
        Subject: C=US, O=Google, OU=Enterprise, CN=Enterprise Root CA-1
        Subject Public Key Info:
            Public Key Algorithm: rsaEncryption
                Public-Key: (2048 bit)
                Modulus:
                    00:8c:a6:43:1c:26:69:b1:49:29:d2:77:0a:df:e4:
                    6d:f1:03:46:25:29:09:90:3c:27:ba:b7:2c:c9:15:
                    6d:cf:d2:64:dc:e3:78:7b:ed:1b:9f:88:4f:b2:fa:
                    ef:2a:3c:b6:53:aa:4e:30:0d:71:ca:64:a5:8c:bf:
                    fa:cd:a6:8e:f1:5c:b9:83:a4:bf:bd:df:6f:91:ee:
                    2b:49:c4:e1:85:60:1a:11:10:45:73:e2:fe:c4:3f:
                    80:79:26:a5:74:42:b7:59:54:bc:63:95:79:2f:76:
                    90:b7:e3:bb:a1:68:90:34:b0:ea:fd:9f:eb:07:4e:
                    5e:33:f9:be:3c:46:5f:c7:05:6f:a7:6e:8d:7e:05:
                    0f:c6:e8:72:38:e9:af:33:fc:5c:d5:92:70:00:86:
                    33:29:44:af:3d:3b:a4:f2:e0:71:4e:84:35:9f:95:
                    03:41:37:e7:5a:49:62:41:f5:b2:af:f5:f8:81:6f:
                    05:4d:2d:2b:b4:34:76:28:6f:96:a6:64:2f:fc:5f:
                    94:dd:e1:63:db:05:65:e6:d4:bb:79:5e:14:d9:f3:
                    9e:db:13:09:10:f9:c8:6c:e0:cb:41:40:c8:cc:3b:
                    7d:e1:ab:1c:d1:4d:b2:ff:ad:5b:68:a0:3c:ef:13:
                    16:43:73:02:81:e8:2c:6d:4f:d7:12:4f:c8:d8:73:
                    8d:e7
                Exponent: 65537 (0x10001)
        X509v3 extensions:
            X509v3 Key Usage: critical
                Certificate Sign, CRL Sign
            X509v3 Basic Constraints: critical
                CA:TRUE
            X509v3 Subject Key Identifier: 
                2B:FB:AD:F5:CE:AC:81:21:1D:81:2E:E7:A2:DE:16:86:E8:89:A0:90
            X509v3 Authority Key Identifier: 
                2B:FB:AD:F5:CE:AC:81:21:1D:81:2E:E7:A2:DE:16:86:E8:89:A0:90
    Signature Algorithm: sha256WithRSAEncryption
    Signature Value:
        74:6e:5d:b1:2d:e4:92:a4:8e:5b:1b:2c:16:e6:5a:66:41:21:
        4b:ee:a9:59:9e:d4:e6:1e:82:26:9e:40:eb:b0:ff:25:05:d8:
        e6:66:6e:ed:0b:64:6f:e8:76:36:e4:3a:f8:cc:d5:a8:2e:97:
        9b:21:1c:04:de:88:4b:45:ce:bf:7c:19:c7:ab:a8:da:92:51:
        61:08:65:88:99:e4:09:d0:84:82:bd:06:1e:2c:38:30:8b:a0:
        ac:06:a2:28:3a:b1:84:a8:7f:0c:8f:03:0c:ea:90:d5:34:e6:
        a6:64:68:8a:f2:7b:fb:15:db:7a:55:c5:0c:6c:0e:53:35:04:
        cd:cf:78:82:b9:97:a1:c9:ac:67:1c:b7:68:cc:46:ed:19:ab:
        05:14:7b:63:2d:de:05:14:83:6d:22:4b:2f:63:29:57:33:9f:
        b1:af:71:e8:83:5e:66:27:f8:8a:91:7d:39:2a:a1:71:ed:95:
        f9:f1:a2:ac:2a:50:7e:af:dc:59:21:51:c1:98:1a:74:42:94:
        97:10:c7:8b:26:ed:f9:96:26:f8:6e:b8:2d:85:db:20:eb:65:
        16:a6:ec:0d:4a:cb:0e:77:6d:16:4b:0b:a2:ca:93:5f:fa:55:
        7e:4a:2b:58:31:2a:a6:14:1c:54:5b:d5:7e:26:54:ff:44:ec:
        79:0a:84:c2
-----BEGIN CERTIFICATE-----
MIIDgjCCAmqgAwIBAgIBATANBgkqhkiG9w0BAQsFADBSMQswCQYDVQQGEwJVUzEP
MA0GA1UECgwGR29vZ2xlMRMwEQYDVQQLDApFbnRlcnByaXNlMR0wGwYDVQQDDBRF
bnRlcnByaXNlIFJvb3QgQ0EtMTAeFw0yMzAxMDYyMzUxMTBaFw0zMzAxMDUyMzUx
MTBaMFIxCzAJBgNVBAYTAlVTMQ8wDQYDVQQKDAZHb29nbGUxEzARBgNVBAsMCkVu
dGVycHJpc2UxHTAbBgNVBAMMFEVudGVycHJpc2UgUm9vdCBDQS0xMIIBIjANBgkq
hkiG9w0BAQEFAAOCAQ8AMIIBCgKCAQEAjKZDHCZpsUkp0ncK3+Rt8QNGJSkJkDwn
urcsyRVtz9Jk3ON4e+0bn4hPsvrvKjy2U6pOMA1xymSljL/6zaaO8Vy5g6S/vd9v
ke4rScThhWAaERBFc+L+xD+AeSaldEK3WVS8Y5V5L3aQt+O7oWiQNLDq/Z/rB05e
M/m+PEZfxwVvp26NfgUPxuhyOOmvM/xc1ZJwAIYzKUSvPTuk8uBxToQ1n5UDQTfn
WkliQfWyr/X4gW8FTS0rtDR2KG+WpmQv/F+U3eFj2wVl5tS7eV4U2fOe2xMJEPnI
bODLQUDIzDt94asc0U2y/61baKA87xMWQ3MCgegsbU/XEk/I2HON5wIDAQABo2Mw
YTAOBgNVHQ8BAf8EBAMCAQYwDwYDVR0TAQH/BAUwAwEB/zAdBgNVHQ4EFgQUK/ut
9c6sgSEdgS7not4WhuiJoJAwHwYDVR0jBBgwFoAUK/ut9c6sgSEdgS7not4WhuiJ
oJAwDQYJKoZIhvcNAQELBQADggEBAHRuXbEt5JKkjlsbLBbmWmZBIUvuqVme1OYe
giaeQOuw/yUF2OZmbu0LZG/odjbkOvjM1agul5shHATeiEtFzr98GcerqNqSUWEI
ZYiZ5AnQhIK9Bh4sODCLoKwGoig6sYSofwyPAwzqkNU05qZkaIrye/sV23pVxQxs
DlM1BM3PeIK5l6HJrGcct2jMRu0ZqwUUe2Mt3gUUg20iSy9jKVczn7GvceiDXmYn
+IqRfTkqoXHtlfnxoqwqUH6v3FkhUcGYGnRClJcQx4sm7fmWJvhuuC2F2yDrZRam
7A1Kyw53bRZLC6LKk1/6VX5KK1gxKqYUHFRb1X4mVP9E7HkKhMI=
-----END CERTIFICATE-----
